; Function Attrs: mustprogress uwtable
define i32 @udatpg_getFieldDisplayName_77(ptr noundef %0, i32 noundef %1, i32 noundef %2, ptr noundef %3, i32 noundef %4, ptr noundef %5) local_unnamed_addr #0 personality ptr @__gxx_personality_v0 {
  %7 = alloca %"class.icu_77::UnicodeString", align 8
  %8 = alloca %"class.icu_77::Char16Ptr", align 8
  %9 = load i32, ptr %5, align 4, !tbaa !6
  %10 = icmp slt i32 %9, 1
  br i1 %10, label %11, label %34

11:                                               ; preds = %6
  %12 = icmp eq ptr %3, null
  br i1 %12, label %13, label %14

13:                                               ; preds = %11
  %.not17 = icmp eq i32 %4, 0
  br i1 %.not17, label %17, label %16

14:                                               ; preds = %11
  %15 = icmp slt i32 %4, 0
  br i1 %15, label %16, label %26

16:                                               ; preds = %14, %13
  store i32 1, ptr %5, align 4, !tbaa !6
  br label %34

17:                                               ; preds = %13
  call void @llvm.lifetime.start.p0(i64 64, ptr nonnull %7) #5
  call void @_ZNK6icu_7724DateTimePatternGenerator19getFieldDisplayNameE21UDateTimePatternField23UDateTimePGDisplayWidth(ptr dead_on_unwind nonnull writable sret(%"class.icu_77::UnicodeString") align 8 %7, ptr noundef nonnull align 8 dereferenceable(4796) %0, i32 noundef %1, i32 noundef %2)
  %18 = getelementptr inbounds nuw i8, ptr %7, i64 8
  %19 = load i16, ptr %18, align 8, !tbaa !17
  %20 = icmp slt i16 %19, 0
  %21 = ashr i16 %19, 5
  %22 = sext i16 %21 to i32
  %23 = getelementptr inbounds nuw i8, ptr %7, i64 12
  %24 = load i32, ptr %23, align 4
  %25 = select i1 %20, i32 %24, i32 %22
  br label %33

26:                                               ; preds = %14
  call void @llvm.lifetime.start.p0(i64 64, ptr nonnull %7) #5
  call void @_ZNK6icu_7724DateTimePatternGenerator19getFieldDisplayNameE21UDateTimePatternField23UDateTimePGDisplayWidth(ptr dead_on_unwind nonnull writable sret(%"class.icu_77::UnicodeString") align 8 %7, ptr noundef nonnull align 8 dereferenceable(4796) %0, i32 noundef %1, i32 noundef %2)
  store ptr %3, ptr %8, align 8, !tbaa !14
  %27 = invoke noundef i32 @_ZNK6icu_7713UnicodeString7extractENS_9Char16PtrEiR10UErrorCode(ptr noundef nonnull align 8 dereferenceable(64) %7, ptr noundef nonnull %8, i32 noundef %4, ptr noundef nonnull align 4 dereferenceable(4) %5)
          to label %28 unwind label %30

28:                                               ; preds = %26
  %29 = load ptr, ptr %8, align 8, !tbaa !14
  call void asm sideeffect "", "rm,~{memory},~{dirflag},~{fpsr},~{flags}"(ptr %29) #5, !srcloc !16
  br label %33

30:                                               ; preds = %26
  %31 = landingpad { ptr, i32 }
          cleanup
  %32 = load ptr, ptr %8, align 8, !tbaa !14
  call void asm sideeffect "", "rm,~{memory},~{dirflag},~{fpsr},~{flags}"(ptr %32) #5, !srcloc !16
  call void @_ZN6icu_7713UnicodeStringD1Ev(ptr noundef nonnull align 8 dereferenceable(64) %7) #5
  call void @llvm.lifetime.end.p0(i64 64, ptr nonnull %7) #5
  resume { ptr, i32 } %31

33:                                               ; preds = %17, %28
  %.1 = phi i32 [ %27, %28 ], [ %25, %17 ]
  call void @_ZN6icu_7713UnicodeStringD1Ev(ptr noundef nonnull align 8 dereferenceable(64) %7) #5
  call void @llvm.lifetime.end.p0(i64 64, ptr nonnull %7) #5
  br label %34

34:                                               ; preds = %6, %33, %16
  %.015 = phi i32 [ -1, %16 ], [ %.1, %33 ], [ -1, %6 ]
  ret i32 %.015
}